target datalayout = "e-m:e-p270:32:32-p271:32:32-p272:64:64-i64:64-i128:128-f80:128-n8:16:32:64-S128"
target triple = "x86_64-unknown-linux-gnu"

%"class.zmq::stream_connecter_base_t" = type { %"class.zmq::own_t.base", %"class.zmq::io_object_t", ptr, i32, ptr, %"class.std::__cxx11::basic_string", ptr, i8, i8, i32, ptr }
%"class.zmq::own_t.base" = type <{ %"class.zmq::object_t.base", [4 x i8], %"struct.zmq::options_t", i8, [7 x i8], %"class.zmq::atomic_counter_t", i64, ptr, %"class.std::set.28", i32 }>
%"class.zmq::object_t.base" = type <{ ptr, ptr, i32 }>
%"struct.zmq::options_t" = type { i32, i32, i64, i8, [256 x i8], i32, i32, i32, i32, i32, i32, i32, i32, i8, %"struct.zmq::atomic_value_t", i32, i32, i32, i32, i32, i32, i64, i32, i32, i8, i32, i8, i8, i8, i8, i8, %"class.std::__cxx11::basic_string", %"class.std::__cxx11::basic_string", %"class.std::__cxx11::basic_string", i32, i32, i32, i32, %"class.std::vector", %"class.std::set", %"class.std::set", %"class.std::set.6", i32, i32, %"class.std::__cxx11::basic_string", %"class.std::__cxx11::basic_string", %"class.std::__cxx11::basic_string", [32 x i8], [32 x i8], [32 x i8], %"class.std::__cxx11::basic_string", %"class.std::__cxx11::basic_string", i32, i32, i8, i32, i8, i32, i8, i16, i32, i32, i32, %"class.std::__cxx11::basic_string", i8, i8, i8, i32, i32, i8, i32, %"class.std::map", i32, %"class.std::__cxx11::basic_string", %"class.std::__cxx11::basic_string", %"class.std::__cxx11::basic_string", %"class.std::__cxx11::basic_string", i8, %"class.std::vector.21", i8, %"class.std::vector.21", i8, %"class.std::vector.21", i8, i32, i8, i32, i32, i32, i32, i32, i8, i32 }
%"struct.zmq::atomic_value_t" = type { %"struct.std::atomic" }
%"struct.std::atomic" = type { %"struct.std::__atomic_base" }
%"struct.std::__atomic_base" = type { i32 }
%"class.std::vector" = type { %"struct.std::_Vector_base" }
%"struct.std::_Vector_base" = type { %"struct.std::_Vector_base<zmq::tcp_address_mask_t, std::allocator<zmq::tcp_address_mask_t>>::_Vector_impl" }
%"struct.std::_Vector_base<zmq::tcp_address_mask_t, std::allocator<zmq::tcp_address_mask_t>>::_Vector_impl" = type { %"struct.std::_Vector_base<zmq::tcp_address_mask_t, std::allocator<zmq::tcp_address_mask_t>>::_Vector_impl_data" }
%"struct.std::_Vector_base<zmq::tcp_address_mask_t, std::allocator<zmq::tcp_address_mask_t>>::_Vector_impl_data" = type { ptr, ptr, ptr }
%"class.std::set" = type { %"class.std::_Rb_tree" }
%"class.std::_Rb_tree" = type { %"struct.std::_Rb_tree<unsigned int, unsigned int, std::_Identity<unsigned int>, std::less<unsigned int>>::_Rb_tree_impl" }
%"struct.std::_Rb_tree<unsigned int, unsigned int, std::_Identity<unsigned int>, std::less<unsigned int>>::_Rb_tree_impl" = type { %"struct.std::_Rb_tree_key_compare", %"struct.std::_Rb_tree_header" }
%"struct.std::_Rb_tree_key_compare" = type { %"struct.std::less" }
%"struct.std::less" = type { i8 }
%"struct.std::_Rb_tree_header" = type { %"struct.std::_Rb_tree_node_base", i64 }
%"struct.std::_Rb_tree_node_base" = type { i32, ptr, ptr, ptr }
%"class.std::set.6" = type { %"class.std::_Rb_tree.7" }
%"class.std::_Rb_tree.7" = type { %"struct.std::_Rb_tree<int, int, std::_Identity<int>, std::less<int>>::_Rb_tree_impl" }
%"struct.std::_Rb_tree<int, int, std::_Identity<int>, std::less<int>>::_Rb_tree_impl" = type { %"struct.std::_Rb_tree_key_compare.11", %"struct.std::_Rb_tree_header" }
%"struct.std::_Rb_tree_key_compare.11" = type { %"struct.std::less.12" }
%"struct.std::less.12" = type { i8 }
%"class.std::map" = type { %"class.std::_Rb_tree.14" }
%"class.std::_Rb_tree.14" = type { %"struct.std::_Rb_tree<std::__cxx11::basic_string<char>, std::pair<const std::__cxx11::basic_string<char>, std::__cxx11::basic_string<char>>, std::_Select1st<std::pair<const std::__cxx11::basic_string<char>, std::__cxx11::basic_string<char>>>, std::less<std::__cxx11::basic_string<char>>>::_Rb_tree_impl" }
%"struct.std::_Rb_tree<std::__cxx11::basic_string<char>, std::pair<const std::__cxx11::basic_string<char>, std::__cxx11::basic_string<char>>, std::_Select1st<std::pair<const std::__cxx11::basic_string<char>, std::__cxx11::basic_string<char>>>, std::less<std::__cxx11::basic_string<char>>>::_Rb_tree_impl" = type { %"struct.std::_Rb_tree_key_compare.18", %"struct.std::_Rb_tree_header" }
%"struct.std::_Rb_tree_key_compare.18" = type { %"struct.std::less.19" }
%"struct.std::less.19" = type { i8 }
%"class.std::vector.21" = type { %"struct.std::_Vector_base.22" }
%"struct.std::_Vector_base.22" = type { %"struct.std::_Vector_base<unsigned char, std::allocator<unsigned char>>::_Vector_impl" }
%"struct.std::_Vector_base<unsigned char, std::allocator<unsigned char>>::_Vector_impl" = type { %"struct.std::_Vector_base<unsigned char, std::allocator<unsigned char>>::_Vector_impl_data" }
%"struct.std::_Vector_base<unsigned char, std::allocator<unsigned char>>::_Vector_impl_data" = type { ptr, ptr, ptr }
%"class.zmq::atomic_counter_t" = type { %"struct.std::atomic.26", [4 x i8] }
%"struct.std::atomic.26" = type { %"struct.std::__atomic_base.27" }
%"struct.std::__atomic_base.27" = type { i32 }
%"class.std::set.28" = type { %"class.std::_Rb_tree.29" }
%"class.std::_Rb_tree.29" = type { %"struct.std::_Rb_tree<zmq::own_t *, zmq::own_t *, std::_Identity<zmq::own_t *>, std::less<zmq::own_t *>>::_Rb_tree_impl" }
%"struct.std::_Rb_tree<zmq::own_t *, zmq::own_t *, std::_Identity<zmq::own_t *>, std::less<zmq::own_t *>>::_Rb_tree_impl" = type { %"struct.std::_Rb_tree_key_compare.33", %"struct.std::_Rb_tree_header" }
%"struct.std::_Rb_tree_key_compare.33" = type { %"struct.std::less.34" }
%"struct.std::less.34" = type { i8 }
%"class.zmq::io_object_t" = type { %"struct.zmq::i_poll_events", ptr }
%"struct.zmq::i_poll_events" = type { ptr }
%"class.std::__cxx11::basic_string" = type { %"struct.std::__cxx11::basic_string<char>::_Alloc_hider", i64, %union.anon }
%"struct.std::__cxx11::basic_string<char>::_Alloc_hider" = type { ptr }
%union.anon = type { i64, [8 x i8] }
%"struct.zmq::endpoint_uri_pair_t" = type <{ %"class.std::__cxx11::basic_string", %"class.std::__cxx11::basic_string", i32, [4 x i8] }>
%"class.zmq::own_t" = type <{ %"class.zmq::object_t.base", [4 x i8], %"struct.zmq::options_t", i8, [7 x i8], %"class.zmq::atomic_counter_t", i64, ptr, %"class.std::set.28", i32, [4 x i8] }>

; Function Attrs: mustprogress nounwind uwtable
define linkonce_odr void @_ZN3zmq19endpoint_uri_pair_tD2Ev(ptr noundef nonnull align 8 dereferenceable(68) %this) unnamed_addr #2 comdat align 2 {
entry:
  %this.addr = alloca ptr, align 8
  store ptr %this, ptr %this.addr, align 8
  %this1 = load ptr, ptr %this.addr, align 8
  %remote = getelementptr inbounds %"struct.zmq::endpoint_uri_pair_t", ptr %this1, i32 0, i32 1
  call void @_ZNSt7__cxx1112basic_stringIcSt11char_traitsIcESaIcEED1Ev(ptr noundef nonnull align 8 dereferenceable(32) %remote) #8
  %local = getelementptr inbounds %"struct.zmq::endpoint_uri_pair_t", ptr %this1, i32 0, i32 0
  call void @_ZNSt7__cxx1112basic_stringIcSt11char_traitsIcESaIcEED1Ev(ptr noundef nonnull align 8 dereferenceable(32) %local) #8
  ret void
}

; Function Attrs: mustprogress uwtable
define void @_ZN3zmq15ipc_connecter_t16start_connectingEv(ptr noundef nonnull align 8 dereferenceable(1544) %this) unnamed_addr #0 align 2 personality ptr @__gxx_personality_v0 {
entry:
  %this.addr = alloca ptr, align 8
  %rc = alloca i32, align 4
  %ref.tmp = alloca %"struct.zmq::endpoint_uri_pair_t", align 8
  %exn.slot = alloca ptr, align 8
  %ehselector.slot = alloca i32, align 4
  store ptr %this, ptr %this.addr, align 8
  %this1 = load ptr, ptr %this.addr, align 8
  %call = call noundef i32 @_ZN3zmq15ipc_connecter_t4openEv(ptr noundef nonnull align 8 dereferenceable(1544) %this1)
  store i32 %call, ptr %rc, align 4
  %0 = load i32, ptr %rc, align 4
  %cmp = icmp eq i32 %0, 0
  br i1 %cmp, label %if.then, label %if.else

if.then:                                          ; preds = %entry
  %add.ptr = getelementptr inbounds i8, ptr %this1, i64 1448
  %_s = getelementptr inbounds %"class.zmq::stream_connecter_base_t", ptr %this1, i32 0, i32 3
  %1 = load i32, ptr %_s, align 8
  %call2 = call noundef ptr @_ZN3zmq11io_object_t6add_fdEi(ptr noundef nonnull align 8 dereferenceable(16) %add.ptr, i32 noundef %1)
  %_handle = getelementptr inbounds %"class.zmq::stream_connecter_base_t", ptr %this1, i32 0, i32 4
  store ptr %call2, ptr %_handle, align 8
  call void @_ZN3zmq15ipc_connecter_t9out_eventEv(ptr noundef nonnull align 8 dereferenceable(1544) %this1)
  br label %if.end35

if.else:                                          ; preds = %entry
  %2 = load i32, ptr %rc, align 4
  %cmp3 = icmp eq i32 %2, -1
  br i1 %cmp3, label %land.lhs.true, label %if.else15

land.lhs.true:                                    ; preds = %if.else
  %call4 = call ptr @__errno_location() #9
  %3 = load i32, ptr %call4, align 4
  %cmp5 = icmp eq i32 %3, 115
  br i1 %cmp5, label %if.then6, label %if.else15

if.then6:                                         ; preds = %land.lhs.true
  %add.ptr7 = getelementptr inbounds i8, ptr %this1, i64 1448
  %_s8 = getelementptr inbounds %"class.zmq::stream_connecter_base_t", ptr %this1, i32 0, i32 3
  %4 = load i32, ptr %_s8, align 8
  %call9 = call noundef ptr @_ZN3zmq11io_object_t6add_fdEi(ptr noundef nonnull align 8 dereferenceable(16) %add.ptr7, i32 noundef %4)
  %_handle10 = getelementptr inbounds %"class.zmq::stream_connecter_base_t", ptr %this1, i32 0, i32 4
  store ptr %call9, ptr %_handle10, align 8
  %add.ptr11 = getelementptr inbounds i8, ptr %this1, i64 1448
  %_handle12 = getelementptr inbounds %"class.zmq::stream_connecter_base_t", ptr %this1, i32 0, i32 4
  %5 = load ptr, ptr %_handle12, align 8
  call void @_ZN3zmq11io_object_t11set_polloutEPv(ptr noundef nonnull align 8 dereferenceable(16) %add.ptr11, ptr noundef %5)
  %_socket = getelementptr inbounds %"class.zmq::stream_connecter_base_t", ptr %this1, i32 0, i32 6
  %6 = load ptr, ptr %_socket, align 8
  %_endpoint = getelementptr inbounds %"class.zmq::stream_connecter_base_t", ptr %this1, i32 0, i32 5
  call void @_ZN3zmq38make_unconnected_connect_endpoint_pairERKNSt7__cxx1112basic_stringIcSt11char_traitsIcESaIcEEE(ptr sret(%"struct.zmq::endpoint_uri_pair_t") align 8 %ref.tmp, ptr noundef nonnull align 8 dereferenceable(32) %_endpoint)
  %call13 = invoke i32 @zmq_errno()
          to label %invoke.cont unwind label %lpad

invoke.cont:                                      ; preds = %if.then6
  invoke void @_ZN3zmq13socket_base_t21event_connect_delayedERKNS_19endpoint_uri_pair_tEi(ptr noundef nonnull align 8 dereferenceable(1825) %6, ptr noundef nonnull align 8 dereferenceable(68) %ref.tmp, i32 noundef %call13)
          to label %invoke.cont14 unwind label %lpad

invoke.cont14:                                    ; preds = %invoke.cont
  call void @_ZN3zmq19endpoint_uri_pair_tD2Ev(ptr noundef nonnull align 8 dereferenceable(68) %ref.tmp) #8
  br label %if.end34

lpad:                                             ; preds = %invoke.cont, %if.then6
  %7 = landingpad { ptr, i32 }
          cleanup
  %8 = extractvalue { ptr, i32 } %7, 0
  store ptr %8, ptr %exn.slot, align 8
  %9 = extractvalue { ptr, i32 } %7, 1
  store i32 %9, ptr %ehselector.slot, align 4
  call void @_ZN3zmq19endpoint_uri_pair_tD2Ev(ptr noundef nonnull align 8 dereferenceable(68) %ref.tmp) #8
  br label %eh.resume

if.else15:                                        ; preds = %land.lhs.true, %if.else
  %10 = load i32, ptr %rc, align 4
  %cmp16 = icmp eq i32 %10, -1
  br i1 %cmp16, label %land.lhs.true17, label %if.else28

land.lhs.true17:                                  ; preds = %if.else15
  %options = getelementptr inbounds %"class.zmq::own_t", ptr %this1, i32 0, i32 2
  %reconnect_stop = getelementptr inbounds %"struct.zmq::options_t", ptr %options, i32 0, i32 17
  %11 = load i32, ptr %reconnect_stop, align 4
  %and = and i32 %11, 4
  %tobool = icmp ne i32 %and, 0
  br i1 %tobool, label %land.lhs.true18, label %if.else28

land.lhs.true18:                                  ; preds = %land.lhs.true17
  %call19 = call ptr @__errno_location() #9
  %12 = load i32, ptr %call19, align 4
  %cmp20 = icmp eq i32 %12, 111
  br i1 %cmp20, label %land.lhs.true21, label %if.else28

land.lhs.true21:                                  ; preds = %land.lhs.true18
  %_socket22 = getelementptr inbounds %"class.zmq::stream_connecter_base_t", ptr %this1, i32 0, i32 6
  %13 = load ptr, ptr %_socket22, align 8
  %call23 = call noundef zeroext i1 @_ZNK3zmq13socket_base_t15is_disconnectedEv(ptr noundef nonnull align 8 dereferenceable(1825) %13)
  br i1 %call23, label %if.then24, label %if.else28

if.then24:                                        ; preds = %land.lhs.true21
  %_s25 = getelementptr inbounds %"class.zmq::stream_connecter_base_t", ptr %this1, i32 0, i32 3
  %14 = load i32, ptr %_s25, align 8
  %cmp26 = icmp ne i32 %14, -1
  br i1 %cmp26, label %if.then27, label %if.end

if.then27:                                        ; preds = %if.then24
  call void @_ZN3zmq23stream_connecter_base_t5closeEv(ptr noundef nonnull align 8 dereferenceable(1544) %this1)
  br label %if.end

if.end:                                           ; preds = %if.then27, %if.then24
  br label %if.end33

if.else28:                                        ; preds = %land.lhs.true21, %land.lhs.true18, %land.lhs.true17, %if.else15
  %_s29 = getelementptr inbounds %"class.zmq::stream_connecter_base_t", ptr %this1, i32 0, i32 3
  %15 = load i32, ptr %_s29, align 8
  %cmp30 = icmp ne i32 %15, -1
  br i1 %cmp30, label %if.then31, label %if.end32

if.then31:                                        ; preds = %if.else28
  call void @_ZN3zmq23stream_connecter_base_t5closeEv(ptr noundef nonnull align 8 dereferenceable(1544) %this1)
  br label %if.end32

if.end32:                                         ; preds = %if.then31, %if.else28
  call void @_ZN3zmq23stream_connecter_base_t19add_reconnect_timerEv(ptr noundef nonnull align 8 dereferenceable(1544) %this1)
  br label %if.end33

if.end33:                                         ; preds = %if.end32, %if.end
  br label %if.end34

if.end34:                                         ; preds = %if.end33, %invoke.cont14
  br label %if.end35

if.end35:                                         ; preds = %if.end34, %if.then
  ret void

eh.resume:                                        ; preds = %lpad
  %exn = load ptr, ptr %exn.slot, align 8
  %sel = load i32, ptr %ehselector.slot, align 4
  %lpad.val = insertvalue { ptr, i32 } poison, ptr %exn, 0
  %lpad.val36 = insertvalue { ptr, i32 } %lpad.val, i32 %sel, 1
  resume { ptr, i32 } %lpad.val36
}