; Function Attrs: mustprogress uwtable
define void @_ZN3zmq15ipc_connecter_t16start_connectingEv(ptr noundef nonnull align 8 dereferenceable(1544) %this) unnamed_addr #0 align 2 personality ptr @__gxx_personality_v0 {
entry:
  %ref.tmp = alloca %"struct.zmq::endpoint_uri_pair_t", align 8
  %call = tail call noundef i32 @_ZN3zmq15ipc_connecter_t4openEv(ptr noundef nonnull align 8 dereferenceable(1544) %this), !range !4
  %cmp = icmp eq i32 %call, 0
  br i1 %cmp, label %if.then, label %land.lhs.true

if.then:                                          ; preds = %entry
  %add.ptr = getelementptr inbounds i8, ptr %this, i64 1448
  %_s = getelementptr inbounds i8, ptr %this, i64 1472
  %0 = load i32, ptr %_s, align 8
  %call2 = tail call noundef ptr @_ZN3zmq11io_object_t6add_fdEi(ptr noundef nonnull align 8 dereferenceable(16) %add.ptr, i32 noundef %0)
  %_handle = getelementptr inbounds i8, ptr %this, i64 1480
  store ptr %call2, ptr %_handle, align 8
  tail call void @_ZN3zmq15ipc_connecter_t9out_eventEv(ptr noundef nonnull align 8 dereferenceable(1544) %this)
  br label %if.end35

land.lhs.true:                                    ; preds = %entry
  %call4 = tail call ptr @__errno_location() #11
  %1 = load i32, ptr %call4, align 4
  %cmp5 = icmp eq i32 %1, 115
  br i1 %cmp5, label %if.then6, label %land.lhs.true17

if.then6:                                         ; preds = %land.lhs.true
  %add.ptr7 = getelementptr inbounds i8, ptr %this, i64 1448
  %_s8 = getelementptr inbounds i8, ptr %this, i64 1472
  %2 = load i32, ptr %_s8, align 8
  %call9 = tail call noundef ptr @_ZN3zmq11io_object_t6add_fdEi(ptr noundef nonnull align 8 dereferenceable(16) %add.ptr7, i32 noundef %2)
  %_handle10 = getelementptr inbounds i8, ptr %this, i64 1480
  store ptr %call9, ptr %_handle10, align 8
  tail call void @_ZN3zmq11io_object_t11set_polloutEPv(ptr noundef nonnull align 8 dereferenceable(16) %add.ptr7, ptr noundef %call9)
  %_socket = getelementptr inbounds i8, ptr %this, i64 1520
  %3 = load ptr, ptr %_socket, align 8
  %_endpoint = getelementptr inbounds i8, ptr %this, i64 1488
  call void @_ZN3zmq38make_unconnected_connect_endpoint_pairERKNSt7__cxx1112basic_stringIcSt11char_traitsIcESaIcEEE(ptr nonnull sret(%"struct.zmq::endpoint_uri_pair_t") align 8 %ref.tmp, ptr noundef nonnull align 8 dereferenceable(32) %_endpoint)
  %call13 = invoke i32 @zmq_errno()
          to label %invoke.cont unwind label %lpad

invoke.cont:                                      ; preds = %if.then6
  invoke void @_ZN3zmq13socket_base_t21event_connect_delayedERKNS_19endpoint_uri_pair_tEi(ptr noundef nonnull align 8 dereferenceable(1825) %3, ptr noundef nonnull align 8 dereferenceable(68) %ref.tmp, i32 noundef %call13)
          to label %invoke.cont14 unwind label %lpad

invoke.cont14:                                    ; preds = %invoke.cont
  %remote.i = getelementptr inbounds i8, ptr %ref.tmp, i64 32
  call void @_ZNSt7__cxx1112basic_stringIcSt11char_traitsIcESaIcEED1Ev(ptr noundef nonnull align 8 dereferenceable(32) %remote.i) #9
  call void @_ZNSt7__cxx1112basic_stringIcSt11char_traitsIcESaIcEED1Ev(ptr noundef nonnull align 8 dereferenceable(32) %ref.tmp) #9
  br label %if.end35

lpad:                                             ; preds = %invoke.cont, %if.then6
  %4 = landingpad { ptr, i32 }
          cleanup
  %remote.i3 = getelementptr inbounds i8, ptr %ref.tmp, i64 32
  call void @_ZNSt7__cxx1112basic_stringIcSt11char_traitsIcESaIcEED1Ev(ptr noundef nonnull align 8 dereferenceable(32) %remote.i3) #9
  call void @_ZNSt7__cxx1112basic_stringIcSt11char_traitsIcESaIcEED1Ev(ptr noundef nonnull align 8 dereferenceable(32) %ref.tmp) #9
  resume { ptr, i32 } %4

land.lhs.true17:                                  ; preds = %land.lhs.true
  %reconnect_stop = getelementptr inbounds i8, ptr %this, i64 348
  %5 = load i32, ptr %reconnect_stop, align 4
  %and = and i32 %5, 4
  %tobool.not = icmp ne i32 %and, 0
  %cmp20 = icmp eq i32 %1, 111
  %or.cond = and i1 %cmp20, %tobool.not
  br i1 %or.cond, label %land.lhs.true21, label %if.else28

land.lhs.true21:                                  ; preds = %land.lhs.true17
  %_socket22 = getelementptr inbounds i8, ptr %this, i64 1520
  %6 = load ptr, ptr %_socket22, align 8
  %call23 = tail call noundef zeroext i1 @_ZNK3zmq13socket_base_t15is_disconnectedEv(ptr noundef nonnull align 8 dereferenceable(1825) %6)
  br i1 %call23, label %if.then24, label %if.else28

if.then24:                                        ; preds = %land.lhs.true21
  %_s25 = getelementptr inbounds i8, ptr %this, i64 1472
  %7 = load i32, ptr %_s25, align 8
  %cmp26.not = icmp eq i32 %7, -1
  br i1 %cmp26.not, label %if.end35, label %if.then27

if.then27:                                        ; preds = %if.then24
  tail call void @_ZN3zmq23stream_connecter_base_t5closeEv(ptr noundef nonnull align 8 dereferenceable(1544) %this)
  br label %if.end35

if.else28:                                        ; preds = %land.lhs.true21, %land.lhs.true17
  %_s29 = getelementptr inbounds i8, ptr %this, i64 1472
  %8 = load i32, ptr %_s29, align 8
  %cmp30.not = icmp eq i32 %8, -1
  br i1 %cmp30.not, label %if.end32, label %if.then31

if.then31:                                        ; preds = %if.else28
  tail call void @_ZN3zmq23stream_connecter_base_t5closeEv(ptr noundef nonnull align 8 dereferenceable(1544) %this)
  br label %if.end32

if.end32:                                         ; preds = %if.then31, %if.else28
  tail call void @_ZN3zmq23stream_connecter_base_t19add_reconnect_timerEv(ptr noundef nonnull align 8 dereferenceable(1544) %this)
  br label %if.end35

if.end35:                                         ; preds = %invoke.cont14, %if.then24, %if.then27, %if.end32, %if.then
  ret void
}